; Function Attrs: nounwind sspstrong uwtable
define hidden i64 @rb_class_boot(i64 noundef %0) local_unnamed_addr #0 {
  %2 = load i64, ptr @rb_cClass, align 8, !tbaa !29
  %3 = tail call align 8 ptr @llvm.threadlocal.address.p0(ptr align 8 @ruby_current_ec)
  %4 = load ptr, ptr %3, align 8, !tbaa !30
  %5 = tail call i64 @rb_wb_protected_newobj_of(ptr noundef %4, i64 noundef %2, i64 noundef 2, i64 noundef 160) #19
  %6 = inttoptr i64 %5 to ptr
  %7 = getelementptr inbounds nuw i8, ptr %6, i64 32
  tail call void @llvm.memset.p0.i64(ptr noundef nonnull align 1 dereferenceable(128) %7, i8 noundef 0, i64 noundef 128, i1 noundef false) #19
  %8 = getelementptr inbounds nuw i8, ptr %6, i64 112
  store i64 %5, ptr %8, align 8, !tbaa !29
  %9 = icmp eq i64 %5, 0
  %10 = and i64 %5, 7
  %11 = icmp ne i64 %10, 0
  %12 = or i1 %9, %11
  br i1 %12, label %class_alloc.exit, label %rb_obj_write.exit.thread.i.i

rb_obj_write.exit.thread.i.i:                     ; preds = %1
  tail call void @rb_gc_writebarrier(i64 noundef %5, i64 noundef %5) #19
  br label %class_alloc.exit

class_alloc.exit:                                 ; preds = %1, %rb_obj_write.exit.thread.i.i
  %13 = getelementptr inbounds nuw i8, ptr %6, i64 120
  store i64 4, ptr %13, align 8, !tbaa !29
  %14 = getelementptr inbounds nuw i8, ptr %6, i64 128
  store ptr null, ptr %14, align 8, !tbaa !32
  %15 = tail call fastcc i64 @RCLASS_SET_SUPER(i64 noundef %5, i64 noundef %0)
  %16 = tail call ptr @rb_id_table_create(i64 noundef 0) #19
  %17 = getelementptr inbounds nuw i8, ptr %6, i64 24
  store ptr %16, ptr %17, align 8, !tbaa !33
  ret i64 %5
}